Certificate:
    Data:
        Version: 3 (0x2)
        Serial Number:
            cd:5a:ba:b8:8c:f1:57:27:fb:22:54:31:bc:eb:89:35
        Signature Algorithm: sha256WithRSAEncryption
        Issuer: CN=172.16.10.153
        Validity
            Not Before: Jul  7 11:35:56 2020 GMT
            Not After : Jun 22 11:35:56 2023 GMT
        Subject: CN=mark855
        Subject Public Key Info:
            Public Key Algorithm: rsaEncryption
                RSA Public-Key: (2048 bit)
                Modulus:
                    00:ea:13:b7:0c:5f:80:31:e3:a5:10:9b:fc:02:c4:
                    9c:3b:a1:23:f7:41:90:41:dd:49:69:98:5e:f2:0d:
                    a7:58:6b:76:da:4b:2f:5d:69:1e:f6:92:e3:bd:af:
                    ce:7d:b5:2d:5c:81:f1:02:a6:07:aa:dd:1a:68:1e:
                    04:3b:7b:c6:f2:21:35:b4:0f:d0:9d:97:b0:15:63:
                    f5:0e:3f:16:36:bb:d3:94:82:7d:80:fa:e2:31:87:
                    f4:05:97:2b:44:2a:35:4f:4c:c1:bf:f0:10:80:f7:
                    b3:5f:70:39:1b:60:7d:c4:06:2d:6e:e6:99:2e:54:
                    e2:d3:3e:06:5d:e0:1b:2d:85:a9:88:ba:00:37:9d:
                    f4:16:83:44:00:3a:5a:07:08:32:87:74:26:5b:af:
                    85:3f:b9:f0:e9:20:aa:88:7f:21:0d:bc:7c:32:9c:
                    bc:d1:b2:94:8b:ca:de:e1:4e:ec:e1:06:b8:b5:20:
                    a0:ee:af:ae:67:a7:50:8b:56:46:9f:28:7e:ff:b1:
                    fc:e8:64:63:71:21:f6:51:19:d0:0f:c0:32:2c:06:
                    dc:36:42:d9:25:9a:67:16:9d:2c:30:e9:b1:1d:48:
                    5b:1d:4b:96:15:6d:b2:b1:20:d2:ab:0e:f0:3c:f6:
                    b0:dc:36:1d:78:fe:06:53:70:73:da:0a:e5:73:32:
                    c3:1d
                Exponent: 65537 (0x10001)
        X509v3 extensions:
            X509v3 Basic Constraints: 
                CA:FALSE
            X509v3 Subject Key Identifier: 
                2C:1A:FD:C6:9F:0D:72:B7:84:6F:F0:15:3E:81:A3:81:F1:EB:42:B1
            X509v3 Authority Key Identifier: 
                keyid:8B:57:EE:4A:2B:8D:8C:E7:F6:0E:88:07:BC:39:F8:72:C1:68:45:C1
                DirName:/CN=172.16.10.153
                serial:1C:21:A6:64:45:50:06:61:96:F8:6E:EB:E2:1A:AE:A3:1F:B6:8F:71

            X509v3 Extended Key Usage: 
                TLS Web Client Authentication
            X509v3 Key Usage: 
                Digital Signature
    Signature Algorithm: sha256WithRSAEncryption
         9b:6c:47:c0:d6:91:1a:2c:ce:75:bd:5b:66:23:5b:3b:d3:85:
         7c:0e:7e:e5:cf:f7:81:f4:6f:44:4d:b1:7f:12:0c:5c:90:42:
         c0:d9:57:0c:5f:6d:b0:b9:aa:d1:6b:b2:dc:b3:e2:c2:cf:4c:
         09:23:01:de:47:f0:7b:49:34:4e:18:f4:c7:85:be:60:d8:28:
         68:39:1e:55:0d:b3:87:4c:e1:a5:e4:41:25:40:e4:fd:17:5e:
         72:24:24:a1:2b:25:54:8d:1a:66:43:e4:8a:da:63:bc:6b:f6:
         0c:15:1d:76:50:ef:d1:45:b8:2b:ca:ba:48:07:b6:6a:d1:a2:
         92:2d:e9:82:4d:85:d1:3e:63:44:93:e0:9e:93:44:c2:48:81:
         f7:ce:6b:55:63:7e:e8:52:cf:bd:0c:38:d5:63:50:41:b4:bb:
         93:bf:88:6d:ed:43:1d:05:c5:65:60:1b:af:4a:ef:42:1f:cf:
         ce:13:51:11:dd:37:50:5c:d6:fa:a5:55:57:f8:7f:31:57:6b:
         1c:c9:98:5c:52:0e:ad:d4:c0:1f:ab:81:a2:38:6e:50:b6:8e:
         5c:44:18:1b:b2:f1:4a:03:bd:97:57:14:ad:6f:89:78:d6:40:
         6e:cf:d2:a8:88:f3:0f:89:69:b6:17:91:59:a0:11:7d:4b:97:
         0f:ec:a6:24
-----BEGIN CERTIFICATE-----
MIIDWjCCAkKgAwIBAgIRAM1auriM8Vcn+yJUMbzriTUwDQYJKoZIhvcNAQELBQAw
GDEWMBQGA1UEAwwNMTcyLjE2LjEwLjE1MzAeFw0yMDA3MDcxMTM1NTZaFw0yMzA2
MjIxMTM1NTZaMBIxEDAOBgNVBAMMB21hcms4NTUwggEiMA0GCSqGSIb3DQEBAQUA
A4IBDwAwggEKAoIBAQDqE7cMX4Ax46UQm/wCxJw7oSP3QZBB3UlpmF7yDadYa3ba
Sy9daR72kuO9r859tS1cgfECpgeq3RpoHgQ7e8byITW0D9Cdl7AVY/UOPxY2u9OU
gn2A+uIxh/QFlytEKjVPTMG/8BCA97NfcDkbYH3EBi1u5pkuVOLTPgZd4BsthamI
ugA3nfQWg0QAOloHCDKHdCZbr4U/ufDpIKqIfyENvHwynLzRspSLyt7hTuzhBri1
IKDur65np1CLVkafKH7/sfzoZGNxIfZRGdAPwDIsBtw2QtklmmcWnSww6bEdSFsd
S5YVbbKxINKrDvA89rDcNh14/gZTcHPaCuVzMsMdAgMBAAGjgaQwgaEwCQYDVR0T
BAIwADAdBgNVHQ4EFgQULBr9xp8NcreEb/AVPoGjgfHrQrEwUwYDVR0jBEwwSoAU
i1fuSiuNjOf2DogHvDn4csFoRcGhHKQaMBgxFjAUBgNVBAMMDTE3Mi4xNi4xMC4x
NTOCFBwhpmRFUAZhlvhu6+IarqMfto9xMBMGA1UdJQQMMAoGCCsGAQUFBwMCMAsG
A1UdDwQEAwIHgDANBgkqhkiG9w0BAQsFAAOCAQEAm2xHwNaRGizOdb1bZiNbO9OF
fA5+5c/3gfRvRE2xfxIMXJBCwNlXDF9tsLmq0Wuy3LPiws9MCSMB3kfwe0k0Thj0
x4W+YNgoaDkeVQ2zh0zhpeRBJUDk/RdeciQkoSslVI0aZkPkitpjvGv2DBUddlDv
0UW4K8q6SAe2atGiki3pgk2F0T5jRJPgnpNEwkiB985rVWN+6FLPvQw41WNQQbS7
k7+Ibe1DHQXFZWAbr0rvQh/PzhNREd03UFzW+qVVV/h/MVdrHMmYXFIOrdTAH6uB
ojhuULaOXEQYG7LxSgO9l1cUrW+JeNZAbs/SqIjzD4lptheRWaARfUuXD+ymJA==
-----END CERTIFICATE-----
